target datalayout = "e-m:e-p270:32:32-p271:32:32-p272:64:64-i64:64-i128:128-f80:128-n8:16:32:64-S128"
target triple = "x86_64-pc-linux-gnu"

@hf_gsm_a_dtap_tp_pdu_description = internal global i32 0, align 4
@.str.960 = private unnamed_addr constant [53 x i8] c"Infinite number of PDUs to be transmitted in the TBF\00", align 1
@.str.961 = private unnamed_addr constant [37 x i8] c"%d PDUs to be transmitted in the TBF\00", align 1
@.str.962 = private unnamed_addr constant [9 x i8] c"reserved\00", align 1

; Function Attrs: null_pointer_is_valid sspstrong uwtable
define internal zeroext i16 @de_tp_pdu_description(ptr noundef %0, ptr noundef %1, ptr noundef %2, i32 noundef %3, i32 noundef %4, ptr noundef %5, i32 noundef %6) #1 {
  %8 = alloca ptr, align 8
  %9 = alloca ptr, align 8
  %10 = alloca ptr, align 8
  %11 = alloca i32, align 4
  %12 = alloca i32, align 4
  %13 = alloca ptr, align 8
  %14 = alloca i32, align 4
  %15 = alloca i32, align 4
  %16 = alloca i16, align 2
  store ptr %0, ptr %8, align 8
  store ptr %1, ptr %9, align 8
  store ptr %2, ptr %10, align 8
  store i32 %3, ptr %11, align 4
  store i32 %4, ptr %12, align 4
  store ptr %5, ptr %13, align 8
  store i32 %6, ptr %14, align 4
  call void @llvm.lifetime.start.p0(i64 4, ptr %15) #7
  call void @llvm.lifetime.start.p0(i64 2, ptr %16) #7
  %17 = load i32, ptr %11, align 4
  store i32 %17, ptr %15, align 4
  %18 = load ptr, ptr %8, align 8
  %19 = load i32, ptr %15, align 4
  %20 = call zeroext i16 @tvb_get_ntohs(ptr noundef %18, i32 noundef %19)
  store i16 %20, ptr %16, align 2
  %21 = load i32, ptr %15, align 4
  %22 = add i32 %21, 2
  store i32 %22, ptr %15, align 4
  %23 = load i16, ptr %16, align 2
  %24 = zext i16 %23 to i32
  %25 = and i32 %24, 32768
  %26 = icmp ne i32 %25, 0
  br i1 %26, label %27, label %53

27:                                               ; preds = %7
  %28 = load i16, ptr %16, align 2
  %29 = zext i16 %28 to i32
  %30 = and i32 %29, 4095
  %31 = icmp eq i32 %30, 0
  br i1 %31, label %32, label %40

32:                                               ; preds = %27
  %33 = load ptr, ptr %9, align 8
  %34 = load i32, ptr @hf_gsm_a_dtap_tp_pdu_description, align 4
  %35 = load ptr, ptr %8, align 8
  %36 = load i32, ptr %15, align 4
  %37 = load i16, ptr %16, align 2
  %38 = zext i16 %37 to i32
  %39 = call ptr (ptr, i32, ptr, i32, i32, i32, ptr, ...) @proto_tree_add_uint_format_value(ptr noundef %33, i32 noundef %34, ptr noundef %35, i32 noundef %36, i32 noundef 2, i32 noundef %38, ptr noundef @.str.960)
  br label %52

40:                                               ; preds = %27
  %41 = load ptr, ptr %9, align 8
  %42 = load i32, ptr @hf_gsm_a_dtap_tp_pdu_description, align 4
  %43 = load ptr, ptr %8, align 8
  %44 = load i32, ptr %15, align 4
  %45 = load i16, ptr %16, align 2
  %46 = zext i16 %45 to i32
  %47 = and i32 %46, 4095
  %48 = load i16, ptr %16, align 2
  %49 = zext i16 %48 to i32
  %50 = and i32 %49, 4095
  %51 = call ptr (ptr, i32, ptr, i32, i32, i32, ptr, ...) @proto_tree_add_uint_format_value(ptr noundef %41, i32 noundef %42, ptr noundef %43, i32 noundef %44, i32 noundef 2, i32 noundef %47, ptr noundef @.str.961, i32 noundef %50)
  br label %52

52:                                               ; preds = %40, %32
  br label %61

53:                                               ; preds = %7
  %54 = load ptr, ptr %9, align 8
  %55 = load i32, ptr @hf_gsm_a_dtap_tp_pdu_description, align 4
  %56 = load ptr, ptr %8, align 8
  %57 = load i32, ptr %15, align 4
  %58 = load i16, ptr %16, align 2
  %59 = zext i16 %58 to i32
  %60 = call ptr (ptr, i32, ptr, i32, i32, i32, ptr, ...) @proto_tree_add_uint_format_value(ptr noundef %54, i32 noundef %55, ptr noundef %56, i32 noundef %57, i32 noundef 2, i32 noundef %59, ptr noundef @.str.962)
  br label %61

61:                                               ; preds = %53, %52
  %62 = load i32, ptr %15, align 4
  %63 = load i32, ptr %11, align 4
  %64 = sub i32 %62, %63
  %65 = trunc i32 %64 to i16
  call void @llvm.lifetime.end.p0(i64 2, ptr %16) #7
  call void @llvm.lifetime.end.p0(i64 4, ptr %15) #7
  ret i16 %65
}