; Function Attrs: null_pointer_is_valid sspstrong uwtable
define internal noundef zeroext i16 @de_tp_pdu_description(ptr noundef %0, ptr noundef %1, ptr readnone captures(none) %2, i32 noundef %3, i32 %4, ptr readnone captures(none) %5, i32 %6) #1 {
  %8 = tail call zeroext i16 @tvb_get_ntohs(ptr noundef %0, i32 noundef %3)
  %9 = add i32 %3, 2
  %10 = zext i16 %8 to i32
  %.not = icmp sgt i16 %8, -1
  br i1 %.not, label %19, label %11

11:                                               ; preds = %7
  %12 = and i32 %10, 4095
  %13 = icmp eq i32 %12, 0
  %14 = load i32, ptr @hf_gsm_a_dtap_tp_pdu_description, align 4
  br i1 %13, label %15, label %17

15:                                               ; preds = %11
  %16 = tail call ptr (ptr, i32, ptr, i32, i32, i32, ptr, ...) @proto_tree_add_uint_format_value(ptr noundef %1, i32 noundef %14, ptr noundef %0, i32 noundef %9, i32 noundef 2, i32 noundef %10, ptr noundef nonnull @.str.960)
  br label %22

17:                                               ; preds = %11
  %18 = tail call ptr (ptr, i32, ptr, i32, i32, i32, ptr, ...) @proto_tree_add_uint_format_value(ptr noundef %1, i32 noundef %14, ptr noundef %0, i32 noundef %9, i32 noundef 2, i32 noundef %12, ptr noundef nonnull @.str.961, i32 noundef %12)
  br label %22

19:                                               ; preds = %7
  %20 = load i32, ptr @hf_gsm_a_dtap_tp_pdu_description, align 4
  %21 = tail call ptr (ptr, i32, ptr, i32, i32, i32, ptr, ...) @proto_tree_add_uint_format_value(ptr noundef %1, i32 noundef %20, ptr noundef %0, i32 noundef %9, i32 noundef 2, i32 noundef %10, ptr noundef nonnull @.str.962)
  br label %22

22:                                               ; preds = %15, %17, %19
  ret i16 2
}